; Function Attrs: nofree nounwind uwtable
define internal range(i32 0, 2) i32 @send_fp_chars(ptr noundef %arg, ptr noundef captures(none) %buf, i32 noundef %len) #2 {
entry:
  %tobool.not = icmp eq ptr %arg, null
  br i1 %tobool.not, label %return, label %if.end

if.end:                                           ; preds = %entry
  %conv = sext i32 %len to i64
  %call = tail call i64 @fwrite(ptr noundef %buf, i64 noundef 1, i64 noundef %conv, ptr noundef nonnull %arg)
  %conv1 = zext i32 %len to i64
  %cmp.not = icmp eq i64 %call, %conv1
  %. = zext i1 %cmp.not to i32
  br label %return

return:                                           ; preds = %if.end, %entry
  %retval.0 = phi i32 [ 1, %entry ], [ %., %if.end ]
  ret i32 %retval.0
}